target datalayout = "e-m:e-p270:32:32-p271:32:32-p272:64:64-i64:64-i128:128-f80:128-n8:16:32:64-S128"
target triple = "x86_64-pc-linux-gnu"

%struct.ocsp_cert_id_st = type { %struct.X509_algor_st, %struct.asn1_string_st, %struct.asn1_string_st, %struct.asn1_string_st }
%struct.X509_algor_st = type { ptr, ptr }
%struct.asn1_string_st = type { i32, i32, ptr, i64 }

; Function Attrs: nounwind uwtable
define i32 @OCSP_id_issuer_cmp(ptr noundef %0, ptr noundef %1) #0 {
  %3 = alloca i32, align 4
  %4 = alloca ptr, align 8
  %5 = alloca ptr, align 8
  %6 = alloca i32, align 4
  %7 = alloca i32, align 4
  store ptr %0, ptr %4, align 8, !tbaa !14
  store ptr %1, ptr %5, align 8, !tbaa !14
  call void @llvm.lifetime.start.p0(i64 4, ptr %6) #3
  %8 = load ptr, ptr %4, align 8, !tbaa !14
  %9 = getelementptr inbounds nuw %struct.ocsp_cert_id_st, ptr %8, i32 0, i32 0
  %10 = getelementptr inbounds nuw %struct.X509_algor_st, ptr %9, i32 0, i32 0
  %11 = load ptr, ptr %10, align 8, !tbaa !32
  %12 = load ptr, ptr %5, align 8, !tbaa !14
  %13 = getelementptr inbounds nuw %struct.ocsp_cert_id_st, ptr %12, i32 0, i32 0
  %14 = getelementptr inbounds nuw %struct.X509_algor_st, ptr %13, i32 0, i32 0
  %15 = load ptr, ptr %14, align 8, !tbaa !32
  %16 = call i32 @OBJ_cmp(ptr noundef %11, ptr noundef %15)
  store i32 %16, ptr %6, align 4, !tbaa !22
  %17 = load i32, ptr %6, align 4, !tbaa !22
  %18 = icmp ne i32 %17, 0
  br i1 %18, label %19, label %21

19:                                               ; preds = %2
  %20 = load i32, ptr %6, align 4, !tbaa !22
  store i32 %20, ptr %3, align 4
  store i32 1, ptr %7, align 4
  br label %37

21:                                               ; preds = %2
  %22 = load ptr, ptr %4, align 8, !tbaa !14
  %23 = getelementptr inbounds nuw %struct.ocsp_cert_id_st, ptr %22, i32 0, i32 1
  %24 = load ptr, ptr %5, align 8, !tbaa !14
  %25 = getelementptr inbounds nuw %struct.ocsp_cert_id_st, ptr %24, i32 0, i32 1
  %26 = call i32 @ASN1_OCTET_STRING_cmp(ptr noundef %23, ptr noundef %25)
  store i32 %26, ptr %6, align 4, !tbaa !22
  %27 = load i32, ptr %6, align 4, !tbaa !22
  %28 = icmp ne i32 %27, 0
  br i1 %28, label %29, label %31

29:                                               ; preds = %21
  %30 = load i32, ptr %6, align 4, !tbaa !22
  store i32 %30, ptr %3, align 4
  store i32 1, ptr %7, align 4
  br label %37

31:                                               ; preds = %21
  %32 = load ptr, ptr %4, align 8, !tbaa !14
  %33 = getelementptr inbounds nuw %struct.ocsp_cert_id_st, ptr %32, i32 0, i32 2
  %34 = load ptr, ptr %5, align 8, !tbaa !14
  %35 = getelementptr inbounds nuw %struct.ocsp_cert_id_st, ptr %34, i32 0, i32 2
  %36 = call i32 @ASN1_OCTET_STRING_cmp(ptr noundef %33, ptr noundef %35)
  store i32 %36, ptr %3, align 4
  store i32 1, ptr %7, align 4
  br label %37

37:                                               ; preds = %31, %29, %19
  call void @llvm.lifetime.end.p0(i64 4, ptr %6) #3
  %38 = load i32, ptr %3, align 4
  ret i32 %38
}