; Function Attrs: nounwind uwtable
define i32 @OCSP_id_issuer_cmp(ptr noundef %0, ptr noundef %1) local_unnamed_addr #0 {
  %3 = load ptr, ptr %0, align 8, !tbaa !20
  %4 = load ptr, ptr %1, align 8, !tbaa !20
  %5 = tail call i32 @OBJ_cmp(ptr noundef %3, ptr noundef %4) #3
  %.not = icmp eq i32 %5, 0
  br i1 %.not, label %6, label %14

6:                                                ; preds = %2
  %7 = getelementptr inbounds nuw i8, ptr %0, i64 16
  %8 = getelementptr inbounds nuw i8, ptr %1, i64 16
  %9 = tail call i32 @ASN1_OCTET_STRING_cmp(ptr noundef nonnull %7, ptr noundef nonnull %8) #3
  %.not12 = icmp eq i32 %9, 0
  br i1 %.not12, label %10, label %14

10:                                               ; preds = %6
  %11 = getelementptr inbounds nuw i8, ptr %0, i64 40
  %12 = getelementptr inbounds nuw i8, ptr %1, i64 40
  %13 = tail call i32 @ASN1_OCTET_STRING_cmp(ptr noundef nonnull %11, ptr noundef nonnull %12) #3
  br label %14

14:                                               ; preds = %6, %2, %10
  %.0 = phi i32 [ %13, %10 ], [ %5, %2 ], [ %9, %6 ]
  ret i32 %.0
}